Certificate:
    Data:
        Version: 3 (0x2)
        Serial Number:
            74:8a:fe:95:43:4f:61:b2:67:62:91:ca:9f:81:af:3c
        Signature Algorithm: sha256WithRSAEncryption
        Issuer: CN=ChangeMe
        Validity
            Not Before: Dec 23 14:45:21 2024 GMT
            Not After : Mar 28 14:45:21 2027 GMT
        Subject: CN=ForensicVPNServer1
        Subject Public Key Info:
            Public Key Algorithm: rsaEncryption
                Public-Key: (2048 bit)
                Modulus:
                    00:be:09:e0:b7:a7:0e:7d:5b:47:5f:df:a9:a9:8a:
                    2e:85:44:cb:d5:79:31:93:df:88:8d:90:99:08:30:
                    fe:4d:2e:17:a2:6f:68:bf:b1:42:c1:f5:bb:b7:24:
                    7a:04:ff:59:80:58:fb:91:85:6c:c5:e5:fc:4e:e5:
                    08:18:7c:24:b0:f7:c4:43:49:69:31:f9:5f:12:6a:
                    60:32:8f:2e:31:7d:d8:8e:d7:0e:bb:29:a2:55:8f:
                    08:a7:63:86:ee:ea:28:e7:a7:a2:f1:bc:20:9f:2e:
                    ce:6c:16:89:39:93:98:4a:ee:7e:e9:14:ff:04:28:
                    a5:ae:a2:39:2c:c1:50:b8:95:cd:29:d5:4a:82:dd:
                    65:6c:5c:ef:b7:cf:b0:1b:7c:c1:77:41:d7:bc:4b:
                    d6:73:f6:cc:c8:25:24:3e:46:46:66:a9:a0:2b:fa:
                    75:a5:12:f3:75:9e:e8:ec:1a:0f:27:35:f0:44:68:
                    c0:cd:80:37:e4:92:7c:5b:75:2b:8f:1f:65:8a:97:
                    6c:50:c4:0f:cb:75:73:f4:42:0c:d4:24:3d:56:99:
                    81:f5:12:7e:43:ae:cf:33:5c:62:a7:0c:af:b6:aa:
                    17:83:ee:de:48:18:1f:18:24:a0:04:4c:27:98:02:
                    c1:e7:4b:58:7e:0c:01:42:52:da:8d:f4:e5:c1:c5:
                    73:6d
                Exponent: 65537 (0x10001)
        X509v3 extensions:
            X509v3 Basic Constraints: 
                CA:FALSE
            X509v3 Subject Key Identifier: 
                A5:AB:D4:09:17:75:C8:E6:3D:94:67:8C:69:9E:A3:7F:84:E7:51:9D
            X509v3 Authority Key Identifier: 
                keyid:40:B7:80:97:0D:AB:0C:72:21:3F:37:3F:3E:34:1F:D5:17:44:EE:26
                DirName:/CN=ChangeMe
                serial:71:6B:22:8D:D2:C2:C9:D9:F7:83:35:A4:3B:20:FE:1B:20:FF:B1:6C
            X509v3 Extended Key Usage: 
                TLS Web Server Authentication
            X509v3 Key Usage: 
                Digital Signature, Key Encipherment
            X509v3 Subject Alternative Name: 
                DNS:ForensicVPNServer1
    Signature Algorithm: sha256WithRSAEncryption
    Signature Value:
        05:2a:b9:4e:7f:95:30:0e:fa:b2:29:ac:5c:e2:7c:1c:09:79:
        c8:6d:25:4b:1e:85:9b:fd:a2:99:d3:b5:1d:63:07:6c:57:f6:
        f5:9f:4a:f4:68:f7:6b:0f:3d:17:ef:ab:f6:d6:52:83:d2:fa:
        ac:0e:9d:92:2b:e0:a6:26:51:9d:86:47:72:79:1e:72:01:2d:
        b0:ba:1a:31:14:7f:4d:86:e2:3a:a3:50:c8:dc:18:0f:07:0a:
        fc:cb:3d:ff:75:fe:31:90:83:bc:cd:23:97:c0:f0:0b:f6:03:
        22:8d:54:56:3f:df:aa:ff:a9:45:f4:22:7a:c0:72:ca:4d:21:
        25:94:b7:35:83:a9:c8:7e:1e:0d:e6:b1:6a:3b:70:05:44:97:
        ce:fc:95:4d:e7:01:24:83:18:b8:ab:f3:98:25:69:0b:8e:8f:
        67:ad:6c:ab:d6:a9:f4:9e:bf:65:32:42:b9:16:8f:0d:08:5d:
        61:ac:d8:c4:f7:54:0f:aa:66:ae:1c:bd:d0:cd:14:06:79:23:
        2d:51:17:4d:50:3f:45:d0:53:a1:05:f1:21:c1:a0:20:12:0b:
        66:17:63:38:39:bf:30:3c:0c:6a:04:82:bb:4b:b9:57:04:3d:
        12:02:3e:7f:7f:df:51:ee:20:a8:ec:de:b7:57:d6:12:ed:9b:
        b4:aa:11:c6
-----BEGIN CERTIFICATE-----
MIIDeTCCAmGgAwIBAgIQdIr+lUNPYbJnYpHKn4GvPDANBgkqhkiG9w0BAQsFADAT
MREwDwYDVQQDDAhDaGFuZ2VNZTAeFw0yNDEyMjMxNDQ1MjFaFw0yNzAzMjgxNDQ1
MjFaMB0xGzAZBgNVBAMMEkZvcmVuc2ljVlBOU2VydmVyMTCCASIwDQYJKoZIhvcN
AQEBBQADggEPADCCAQoCggEBAL4J4LenDn1bR1/fqamKLoVEy9V5MZPfiI2QmQgw
/k0uF6JvaL+xQsH1u7ckegT/WYBY+5GFbMXl/E7lCBh8JLD3xENJaTH5XxJqYDKP
LjF92I7XDrspolWPCKdjhu7qKOenovG8IJ8uzmwWiTmTmErufukU/wQopa6iOSzB
ULiVzSnVSoLdZWxc77fPsBt8wXdB17xL1nP2zMglJD5GRmapoCv6daUS83We6Owa
Dyc18ERowM2AN+SSfFt1K48fZYqXbFDED8t1c/RCDNQkPVaZgfUSfkOuzzNcYqcM
r7aqF4Pu3kgYHxgkoARMJ5gCwedLWH4MAUJS2o305cHFc20CAwEAAaOBvjCBuzAJ
BgNVHRMEAjAAMB0GA1UdDgQWBBSlq9QJF3XI5j2UZ4xpnqN/hOdRnTBOBgNVHSME
RzBFgBRAt4CXDasMciE/Nz8+NB/VF0TuJqEXpBUwEzERMA8GA1UEAwwIQ2hhbmdl
TWWCFHFrIo3SwsnZ94M1pDsg/hsg/7FsMBMGA1UdJQQMMAoGCCsGAQUFBwMBMAsG
A1UdDwQEAwIFoDAdBgNVHREEFjAUghJGb3JlbnNpY1ZQTlNlcnZlcjEwDQYJKoZI
hvcNAQELBQADggEBAAUquU5/lTAO+rIprFzifBwJechtJUsehZv9opnTtR1jB2xX
9vWfSvRo92sPPRfvq/bWUoPS+qwOnZIr4KYmUZ2GR3J5HnIBLbC6GjEUf02G4jqj
UMjcGA8HCvzLPf91/jGQg7zNI5fA8Av2AyKNVFY/36r/qUX0InrAcspNISWUtzWD
qch+Hg3msWo7cAVEl878lU3nASSDGLir85glaQuOj2etbKvWqfSev2UyQrkWjw0I
XWGs2MT3VA+qZq4cvdDNFAZ5Iy1RF01QP0XQU6EF8SHBoCASC2YXYzg5vzA8DGoE
grtLuVcEPRICPn9/31HuIKjs3rdX1hLtm7SqEcY=
-----END CERTIFICATE-----
